; Function Attrs: mustprogress nounwind uwtable
define dso_local noundef ptr @_ZNK5clang10LambdaExpr25getTrailingRequiresClauseEv(ptr noundef nonnull readonly align 8 captures(none) dereferenceable(32) %0) local_unnamed_addr #4 align 2 {
  %2 = getelementptr inbounds nuw i8, ptr %0, i64 8
  %.sroa.0.0.copyload.i.i.i = load i64, ptr %2, align 8
  %3 = and i64 %.sroa.0.0.copyload.i.i.i, -16
  %4 = inttoptr i64 %3 to ptr
  %5 = load ptr, ptr %4, align 16
  %6 = tail call noundef ptr @_ZNK5clang4Type18getAsCXXRecordDeclEv(ptr noundef nonnull align 16 dereferenceable(24) %5) #16
  %7 = tail call noundef ptr @_ZNK5clang13CXXRecordDecl21getLambdaCallOperatorEv(ptr noundef nonnull align 8 dereferenceable(144) %6) #16
  %8 = getelementptr inbounds nuw i8, ptr %7, i64 56
  %.0.copyload.i.i.i.i.i.i.i.i.i.i = load i64, ptr %8, align 8
  %9 = and i64 %.0.copyload.i.i.i.i.i.i.i.i.i.i, 4
  %.not.i = icmp eq i64 %9, 0
  br i1 %.not.i, label %_ZN5clang14DeclaratorDecl25getTrailingRequiresClauseEv.exit, label %10

10:                                               ; preds = %1
  %11 = and i64 %.0.copyload.i.i.i.i.i.i.i.i.i.i, -8
  %12 = inttoptr i64 %11 to ptr
  %13 = getelementptr inbounds nuw i8, ptr %12, i64 40
  %14 = load ptr, ptr %13, align 8
  br label %_ZN5clang14DeclaratorDecl25getTrailingRequiresClauseEv.exit

_ZN5clang14DeclaratorDecl25getTrailingRequiresClauseEv.exit: ; preds = %1, %10
  %15 = phi ptr [ %14, %10 ], [ null, %1 ]
  ret ptr %15
}